target datalayout = "e-m:e-p270:32:32-p271:32:32-p272:64:64-i64:64-i128:128-f80:128-n8:16:32:64-S128"
target triple = "x86_64-pc-linux-gnu"

%class.LogTagSet = type { ptr, i64, [5 x i32], [4 x i8], %class.LogOutputList, %class.LogDecorators, ptr }
%class.LogOutputList = type <{ [6 x ptr], i32, [4 x i8] }>
%class.LogDecorators = type { i32 }
%class.GCLogPreciousHandle = type { %class.LogTargetHandle }
%class.LogTargetHandle = type { i32, ptr }
%class.XVirtualMemoryManager = type <{ %class.XMemoryManager, i64, i8, [7 x i8] }>
%class.XMemoryManager = type { %class.XLock, %class.XList, %"struct.XMemoryManager::Callbacks" }
%class.XLock = type { %class.PlatformMutex }
%class.PlatformMutex = type { %union.pthread_mutex_t }
%union.pthread_mutex_t = type { %struct.__pthread_mutex_s }
%struct.__pthread_mutex_s = type { i32, i32, i32, i32, i32, i16, i16, %struct.__pthread_internal_list }
%struct.__pthread_internal_list = type { ptr, ptr }
%class.XList = type { %class.XListNode, i64 }
%class.XListNode = type { ptr, ptr }
%"struct.XMemoryManager::Callbacks" = type { ptr, ptr, ptr, ptr, ptr, ptr }
%class.LogTargetImpl.0 = type { i8 }

@XAddressOffsetMax = external global i64, align 8
@.str.5 = private unnamed_addr constant [29 x i8] c"Address Space Type: %s/%s/%s\00", align 1
@.str.6 = private unnamed_addr constant [11 x i8] c"Contiguous\00", align 1
@.str.7 = private unnamed_addr constant [14 x i8] c"Discontiguous\00", align 1
@.str.8 = private unnamed_addr constant [13 x i8] c"Unrestricted\00", align 1
@.str.9 = private unnamed_addr constant [11 x i8] c"Restricted\00", align 1
@.str.10 = private unnamed_addr constant [9 x i8] c"Complete\00", align 1
@.str.11 = private unnamed_addr constant [9 x i8] c"Degraded\00", align 1
@.str.12 = private unnamed_addr constant [38 x i8] c"Address Space Size: %luM x %lu = %luM\00", align 1
@_ZN16LogTagSetMappingILN6LogTag4typeE49ELS1_58ELS1_0ELS1_0ELS1_0ELS1_0EE7_tagsetE = linkonce_odr hidden global %class.LogTagSet zeroinitializer, comdat, align 8

; Function Attrs: mustprogress nounwind uwtable
define linkonce_odr hidden noundef nonnull align 8 dereferenceable(112) ptr @_ZN16LogTagSetMappingILN6LogTag4typeE49ELS1_58ELS1_0ELS1_0ELS1_0ELS1_0EE6tagsetEv() #1 comdat align 2 {
  ret ptr @_ZN16LogTagSetMappingILN6LogTag4typeE49ELS1_58ELS1_0ELS1_0ELS1_0ELS1_0EE7_tagsetE
}

; Function Attrs: mustprogress nounwind uwtable
define linkonce_odr hidden noundef i64 @_Z10align_downImmTnNSt9enable_ifIXcvbsr3std11is_integralIT_EE5valueEiE4typeELi0EES1_S1_T0_(i64 noundef %0, i64 noundef %1) #1 comdat {
  %3 = alloca i64, align 8
  %4 = alloca i64, align 8
  %5 = alloca i64, align 8
  store i64 %0, ptr %3, align 8
  store i64 %1, ptr %4, align 8
  %6 = load i64, ptr %3, align 8
  %7 = load i64, ptr %4, align 8
  %8 = call noundef i64 @_ZL14alignment_maskImTnNSt9enable_ifIXcvbsr3std11is_integralIT_EE5valueEiE4typeELi0EES1_S1_(i64 noundef %7)
  %9 = xor i64 %8, -1
  %10 = and i64 %6, %9
  store i64 %10, ptr %5, align 8
  %11 = load i64, ptr %5, align 8
  ret i64 %11
}

; Function Attrs: mustprogress nounwind uwtable
define linkonce_odr hidden noundef i64 @_Z12checked_castImmET_T0_(i64 noundef %0) #1 comdat {
  %2 = alloca i64, align 8
  %3 = alloca i64, align 8
  store i64 %0, ptr %2, align 8
  %4 = load i64, ptr %2, align 8
  store i64 %4, ptr %3, align 8
  %5 = load i64, ptr %3, align 8
  ret i64 %5
}

; Function Attrs: mustprogress nounwind uwtable
define internal noundef i64 @_ZL14alignment_maskImTnNSt9enable_ifIXcvbsr3std11is_integralIT_EE5valueEiE4typeELi0EES1_S1_(i64 noundef %0) #1 {
  %2 = alloca i64, align 8
  store i64 %0, ptr %2, align 8
  %3 = load i64, ptr %2, align 8
  %4 = sub i64 %3, 1
  ret i64 %4
}

; Function Attrs: mustprogress nounwind uwtable
define linkonce_odr hidden void @_ZN15LogTargetHandleC2ILN8LogLevel4typeE3ELN6LogTag4typeE49ELS4_58ELS4_0ELS4_0ELS4_0ELS4_0EEERK13LogTargetImplIXT_EXT0_EXT1_EXT2_EXT3_EXT4_EXT5_EE(ptr noundef nonnull align 8 dereferenceable(16) %0, ptr noundef nonnull align 1 dereferenceable(1) %1) unnamed_addr #1 comdat align 2 {
  %3 = alloca ptr, align 8
  %4 = alloca ptr, align 8
  store ptr %0, ptr %3, align 8
  store ptr %1, ptr %4, align 8
  %5 = load ptr, ptr %3, align 8
  %6 = getelementptr inbounds %class.LogTargetHandle, ptr %5, i32 0, i32 0
  store i32 3, ptr %6, align 8
  %7 = getelementptr inbounds %class.LogTargetHandle, ptr %5, i32 0, i32 1
  %8 = call noundef nonnull align 8 dereferenceable(112) ptr @_ZN16LogTagSetMappingILN6LogTag4typeE49ELS1_58ELS1_0ELS1_0ELS1_0ELS1_0EE6tagsetEv()
  store ptr %8, ptr %7, align 8
  ret void
}

; Function Attrs: mustprogress nounwind uwtable
define linkonce_odr hidden void @_ZN13LogTargetImplILN8LogLevel4typeE3ELN6LogTag4typeE49ELS3_58ELS3_0ELS3_0ELS3_0ELS3_0EEC2Ev(ptr noundef nonnull align 1 dereferenceable(1) %0) unnamed_addr #1 comdat align 2 {
  %2 = alloca ptr, align 8
  store ptr %0, ptr %2, align 8
  ret void
}

; Function Attrs: mustprogress nounwind uwtable
define linkonce_odr hidden noundef i64 @_Z4MAX2ImET_S0_S0_(i64 noundef %0, i64 noundef %1) #1 comdat {
  %3 = alloca i64, align 8
  %4 = alloca i64, align 8
  store i64 %0, ptr %3, align 8
  store i64 %1, ptr %4, align 8
  %5 = load i64, ptr %3, align 8
  %6 = load i64, ptr %4, align 8
  %7 = icmp ugt i64 %5, %6
  br i1 %7, label %8, label %10

8:                                                ; preds = %2
  %9 = load i64, ptr %3, align 8
  br label %12

10:                                               ; preds = %2
  %11 = load i64, ptr %4, align 8
  br label %12

12:                                               ; preds = %10, %8
  %13 = phi i64 [ %9, %8 ], [ %11, %10 ]
  ret i64 %13
}

; Function Attrs: mustprogress nounwind uwtable
define linkonce_odr hidden noundef i64 @_Z8align_upImmTnNSt9enable_ifIXcvbsr3std11is_integralIT_EE5valueEiE4typeELi0EES1_S1_T0_(i64 noundef %0, i64 noundef %1) #1 comdat {
  %3 = alloca i64, align 8
  %4 = alloca i64, align 8
  %5 = alloca i64, align 8
  store i64 %0, ptr %3, align 8
  store i64 %1, ptr %4, align 8
  %6 = load i64, ptr %3, align 8
  %7 = load i64, ptr %4, align 8
  %8 = call noundef i64 @_ZL14alignment_maskImTnNSt9enable_ifIXcvbsr3std11is_integralIT_EE5valueEiE4typeELi0EES1_S1_(i64 noundef %7)
  %9 = add i64 %6, %8
  %10 = call noundef i64 @_Z12checked_castImmET_T0_(i64 noundef %9)
  store i64 %10, ptr %5, align 8
  %11 = load i64, ptr %5, align 8
  %12 = load i64, ptr %4, align 8
  %13 = call noundef i64 @_Z10align_downImmTnNSt9enable_ifIXcvbsr3std11is_integralIT_EE5valueEiE4typeELi0EES1_S1_T0_(i64 noundef %11, i64 noundef %12)
  ret i64 %13
}

; Function Attrs: mustprogress nounwind uwtable
define linkonce_odr hidden void @_ZN19GCLogPreciousHandleC2E15LogTargetHandle(ptr noundef nonnull align 8 dereferenceable(16) %0, i32 %1, ptr %2) unnamed_addr #1 comdat align 2 {
  %4 = alloca %class.LogTargetHandle, align 8
  %5 = alloca ptr, align 8
  %6 = getelementptr inbounds { i32, ptr }, ptr %4, i32 0, i32 0
  store i32 %1, ptr %6, align 8
  %7 = getelementptr inbounds { i32, ptr }, ptr %4, i32 0, i32 1
  store ptr %2, ptr %7, align 8
  store ptr %0, ptr %5, align 8
  %8 = load ptr, ptr %5, align 8
  %9 = getelementptr inbounds %class.GCLogPreciousHandle, ptr %8, i32 0, i32 0
  call void @llvm.memcpy.p0.p0.i64(ptr align 8 %9, ptr align 8 %4, i64 16, i1 false)
  ret void
}

; Function Attrs: mustprogress nounwind uwtable
define linkonce_odr hidden { i32, ptr } @_ZN15LogTargetHandle6createILN8LogLevel4typeE3ELN6LogTag4typeE49ELS4_58ELS4_0ELS4_0ELS4_0ELS4_0EEES_v() #1 comdat align 2 {
  %1 = alloca %class.LogTargetHandle, align 8
  %2 = alloca %class.LogTargetImpl.0, align 1
  call void @_ZN13LogTargetImplILN8LogLevel4typeE3ELN6LogTag4typeE49ELS3_58ELS3_0ELS3_0ELS3_0ELS3_0EEC2Ev(ptr noundef nonnull align 1 dereferenceable(1) %2)
  call void @_ZN15LogTargetHandleC2ILN8LogLevel4typeE3ELN6LogTag4typeE49ELS4_58ELS4_0ELS4_0ELS4_0ELS4_0EEERK13LogTargetImplIXT_EXT0_EXT1_EXT2_EXT3_EXT4_EXT5_EE(ptr noundef nonnull align 8 dereferenceable(16) %1, ptr noundef nonnull align 1 dereferenceable(1) %2)
  %3 = load { i32, ptr }, ptr %1, align 8
  ret { i32, ptr } %3
}

; Function Attrs: mustprogress nounwind uwtable
define hidden noundef i64 @_ZN21XVirtualMemoryManager21reserve_discontiguousEm(ptr noundef nonnull align 8 dereferenceable(121) %0, i64 noundef %1) #1 align 2 {
  %3 = alloca ptr, align 8
  %4 = alloca i64, align 8
  %5 = alloca i64, align 8
  %6 = alloca i64, align 8
  %7 = alloca i64, align 8
  %8 = alloca i64, align 8
  store ptr %0, ptr %3, align 8
  store i64 %1, ptr %4, align 8
  %9 = load ptr, ptr %3, align 8
  %10 = load i64, ptr %4, align 8
  %11 = udiv i64 %10, 100
  %12 = call noundef i64 @_Z8align_upImmTnNSt9enable_ifIXcvbsr3std11is_integralIT_EE5valueEiE4typeELi0EES1_S1_T0_(i64 noundef %11, i64 noundef 2097152)
  store i64 %12, ptr %5, align 8
  store i64 0, ptr %6, align 8
  store i64 0, ptr %7, align 8
  br label %13

13:                                               ; preds = %23, %2
  %14 = load i64, ptr %7, align 8
  %15 = load i64, ptr %4, align 8
  %16 = icmp ult i64 %14, %15
  br i1 %16, label %17, label %21

17:                                               ; preds = %13
  %18 = load i64, ptr %6, align 8
  %19 = load i64, ptr @XAddressOffsetMax, align 8
  %20 = icmp ult i64 %18, %19
  br label %21

21:                                               ; preds = %17, %13
  %22 = phi i1 [ false, %13 ], [ %20, %17 ]
  br i1 %22, label %23, label %40

23:                                               ; preds = %21
  %24 = load i64, ptr %4, align 8
  %25 = load i64, ptr %7, align 8
  %26 = sub i64 %24, %25
  %27 = load i64, ptr @XAddressOffsetMax, align 8
  %28 = load i64, ptr %6, align 8
  %29 = sub i64 %27, %28
  %30 = call noundef i64 @_Z4MIN2ImET_S0_S0_(i64 noundef %26, i64 noundef %29)
  store i64 %30, ptr %8, align 8
  %31 = load i64, ptr %6, align 8
  %32 = load i64, ptr %8, align 8
  %33 = load i64, ptr %5, align 8
  %34 = call noundef i64 @_ZN21XVirtualMemoryManager21reserve_discontiguousEmmm(ptr noundef nonnull align 8 dereferenceable(121) %9, i64 noundef %31, i64 noundef %32, i64 noundef %33)
  %35 = load i64, ptr %7, align 8
  %36 = add i64 %35, %34
  store i64 %36, ptr %7, align 8
  %37 = load i64, ptr %8, align 8
  %38 = load i64, ptr %6, align 8
  %39 = add i64 %38, %37
  store i64 %39, ptr %6, align 8
  br label %13, !llvm.loop !6

40:                                               ; preds = %21
  %41 = load i64, ptr %7, align 8
  ret i64 %41
}

; Function Attrs: mustprogress nounwind uwtable
define hidden noundef zeroext i1 @_ZN21XVirtualMemoryManager18reserve_contiguousEm(ptr noundef nonnull align 8 dereferenceable(121) %0, i64 noundef %1) #1 align 2 {
  %3 = alloca i1, align 1
  %4 = alloca ptr, align 8
  %5 = alloca i64, align 8
  %6 = alloca i64, align 8
  %7 = alloca i64, align 8
  %8 = alloca i64, align 8
  store ptr %0, ptr %4, align 8
  store i64 %1, ptr %5, align 8
  %9 = load ptr, ptr %4, align 8
  %10 = load i64, ptr @XAddressOffsetMax, align 8
  %11 = load i64, ptr %5, align 8
  %12 = sub i64 %10, %11
  store i64 %12, ptr %6, align 8
  %13 = load i64, ptr %6, align 8
  %14 = udiv i64 %13, 8192
  %15 = call noundef i64 @_Z8align_upImmTnNSt9enable_ifIXcvbsr3std11is_integralIT_EE5valueEiE4typeELi0EES1_S1_T0_(i64 noundef %14, i64 noundef 2097152)
  %16 = call noundef i64 @_Z4MAX2ImET_S0_S0_(i64 noundef %15, i64 noundef 2097152)
  store i64 %16, ptr %7, align 8
  store i64 0, ptr %8, align 8
  br label %17

17:                                               ; preds = %29, %2
  %18 = load i64, ptr %8, align 8
  %19 = load i64, ptr %5, align 8
  %20 = add i64 %18, %19
  %21 = load i64, ptr @XAddressOffsetMax, align 8
  %22 = icmp ule i64 %20, %21
  br i1 %22, label %23, label %33

23:                                               ; preds = %17
  %24 = load i64, ptr %8, align 8
  %25 = load i64, ptr %5, align 8
  %26 = call noundef zeroext i1 @_ZN21XVirtualMemoryManager18reserve_contiguousEmm(ptr noundef nonnull align 8 dereferenceable(121) %9, i64 noundef %24, i64 noundef %25)
  br i1 %26, label %27, label %28

27:                                               ; preds = %23
  store i1 true, ptr %3, align 1
  br label %34

28:                                               ; preds = %23
  br label %29

29:                                               ; preds = %28
  %30 = load i64, ptr %7, align 8
  %31 = load i64, ptr %8, align 8
  %32 = add i64 %31, %30
  store i64 %32, ptr %8, align 8
  br label %17, !llvm.loop !8

33:                                               ; preds = %17
  store i1 false, ptr %3, align 1
  br label %34

34:                                               ; preds = %33, %27
  %35 = load i1, ptr %3, align 1
  ret i1 %35
}

; Function Attrs: mustprogress nounwind uwtable
define linkonce_odr hidden noundef i64 @_Z4MIN2ImET_S0_S0_(i64 noundef %0, i64 noundef %1) #1 comdat {
  %3 = alloca i64, align 8
  %4 = alloca i64, align 8
  store i64 %0, ptr %3, align 8
  store i64 %1, ptr %4, align 8
  %5 = load i64, ptr %3, align 8
  %6 = load i64, ptr %4, align 8
  %7 = icmp ult i64 %5, %6
  br i1 %7, label %8, label %10

8:                                                ; preds = %2
  %9 = load i64, ptr %3, align 8
  br label %12

10:                                               ; preds = %2
  %11 = load i64, ptr %4, align 8
  br label %12

12:                                               ; preds = %10, %8
  %13 = phi i64 [ %9, %8 ], [ %11, %10 ]
  ret i64 %13
}

; Function Attrs: mustprogress nounwind uwtable
define hidden noundef zeroext i1 @_ZN21XVirtualMemoryManager7reserveEm(ptr noundef nonnull align 8 dereferenceable(121) %0, i64 noundef %1) #1 align 2 {
  %3 = alloca ptr, align 8
  %4 = alloca i64, align 8
  %5 = alloca i64, align 8
  %6 = alloca i64, align 8
  %7 = alloca i64, align 8
  %8 = alloca i8, align 1
  %9 = alloca %class.GCLogPreciousHandle, align 8
  %10 = alloca %class.LogTargetHandle, align 8
  %11 = alloca %class.GCLogPreciousHandle, align 8
  %12 = alloca %class.LogTargetHandle, align 8
  store ptr %0, ptr %3, align 8
  store i64 %1, ptr %4, align 8
  %13 = load ptr, ptr %3, align 8
  %14 = load i64, ptr @XAddressOffsetMax, align 8
  %15 = call noundef i64 @_ZN18XAddressSpaceLimit9heap_viewEv()
  %16 = call noundef i64 @_Z4MIN2ImET_S0_S0_(i64 noundef %14, i64 noundef %15)
  store i64 %16, ptr %5, align 8
  %17 = load i64, ptr %4, align 8
  %18 = mul i64 %17, 16
  %19 = load i64, ptr %5, align 8
  %20 = call noundef i64 @_Z4MIN2ImET_S0_S0_(i64 noundef %18, i64 noundef %19)
  store i64 %20, ptr %6, align 8
  %21 = load i64, ptr %6, align 8
  store i64 %21, ptr %7, align 8
  store i8 1, ptr %8, align 1
  %22 = load i64, ptr %6, align 8
  %23 = call noundef zeroext i1 @_ZN21XVirtualMemoryManager18reserve_contiguousEm(ptr noundef nonnull align 8 dereferenceable(121) %13, i64 noundef %22)
  br i1 %23, label %27, label %24

24:                                               ; preds = %2
  %25 = load i64, ptr %6, align 8
  %26 = call noundef i64 @_ZN21XVirtualMemoryManager21reserve_discontiguousEm(ptr noundef nonnull align 8 dereferenceable(121) %13, i64 noundef %25)
  store i64 %26, ptr %7, align 8
  store i8 0, ptr %8, align 1
  br label %27

27:                                               ; preds = %24, %2
  %28 = call { i32, ptr } @_ZN15LogTargetHandle6createILN8LogLevel4typeE3ELN6LogTag4typeE49ELS4_58ELS4_0ELS4_0ELS4_0ELS4_0EEES_v()
  %29 = getelementptr inbounds { i32, ptr }, ptr %10, i32 0, i32 0
  %30 = extractvalue { i32, ptr } %28, 0
  store i32 %30, ptr %29, align 8
  %31 = getelementptr inbounds { i32, ptr }, ptr %10, i32 0, i32 1
  %32 = extractvalue { i32, ptr } %28, 1
  store ptr %32, ptr %31, align 8
  %33 = getelementptr inbounds { i32, ptr }, ptr %10, i32 0, i32 0
  %34 = load i32, ptr %33, align 8
  %35 = getelementptr inbounds { i32, ptr }, ptr %10, i32 0, i32 1
  %36 = load ptr, ptr %35, align 8
  call void @_ZN19GCLogPreciousHandleC2E15LogTargetHandle(ptr noundef nonnull align 8 dereferenceable(16) %9, i32 %34, ptr %36)
  %37 = load i8, ptr %8, align 1
  %38 = trunc i8 %37 to i1
  %39 = select i1 %38, ptr @.str.6, ptr @.str.7
  %40 = load i64, ptr %5, align 8
  %41 = load i64, ptr @XAddressOffsetMax, align 8
  %42 = icmp eq i64 %40, %41
  %43 = select i1 %42, ptr @.str.8, ptr @.str.9
  %44 = load i64, ptr %7, align 8
  %45 = load i64, ptr %6, align 8
  %46 = icmp eq i64 %44, %45
  br i1 %46, label %47, label %48

47:                                               ; preds = %27
  br label %49

48:                                               ; preds = %27
  br label %49

49:                                               ; preds = %48, %47
  %50 = phi ptr [ @.str.10, %47 ], [ @.str.11, %48 ]
  %51 = getelementptr inbounds [9 x i8], ptr %50, i64 0, i64 0
  call void (ptr, ptr, ...) @_ZN19GCLogPreciousHandle5writeEPKcz(ptr noundef nonnull align 8 dereferenceable(16) %9, ptr noundef @.str.5, ptr noundef %39, ptr noundef %43, ptr noundef %51)
  %52 = call { i32, ptr } @_ZN15LogTargetHandle6createILN8LogLevel4typeE3ELN6LogTag4typeE49ELS4_58ELS4_0ELS4_0ELS4_0ELS4_0EEES_v()
  %53 = getelementptr inbounds { i32, ptr }, ptr %12, i32 0, i32 0
  %54 = extractvalue { i32, ptr } %52, 0
  store i32 %54, ptr %53, align 8
  %55 = getelementptr inbounds { i32, ptr }, ptr %12, i32 0, i32 1
  %56 = extractvalue { i32, ptr } %52, 1
  store ptr %56, ptr %55, align 8
  %57 = getelementptr inbounds { i32, ptr }, ptr %12, i32 0, i32 0
  %58 = load i32, ptr %57, align 8
  %59 = getelementptr inbounds { i32, ptr }, ptr %12, i32 0, i32 1
  %60 = load ptr, ptr %59, align 8
  call void @_ZN19GCLogPreciousHandleC2E15LogTargetHandle(ptr noundef nonnull align 8 dereferenceable(16) %11, i32 %58, ptr %60)
  %61 = load i64, ptr %7, align 8
  %62 = udiv i64 %61, 1048576
  %63 = load i64, ptr %7, align 8
  %64 = mul i64 %63, 3
  %65 = udiv i64 %64, 1048576
  call void (ptr, ptr, ...) @_ZN19GCLogPreciousHandle5writeEPKcz(ptr noundef nonnull align 8 dereferenceable(16) %11, ptr noundef @.str.12, i64 noundef %62, i64 noundef 3, i64 noundef %65)
  %66 = load i64, ptr %7, align 8
  %67 = getelementptr inbounds %class.XVirtualMemoryManager, ptr %13, i32 0, i32 1
  store i64 %66, ptr %67, align 8
  %68 = load i64, ptr %7, align 8
  %69 = load i64, ptr %4, align 8
  %70 = icmp uge i64 %68, %69
  ret i1 %70
}