; Function Attrs: mustprogress nounwind uwtable
define hidden noundef zeroext i1 @_ZN21XVirtualMemoryManager7reserveEm(ptr noundef nonnull align 8 dereferenceable(121) %0, i64 noundef %1) local_unnamed_addr #0 align 2 {
  %3 = alloca %class.GCLogPreciousHandle, align 8
  %4 = alloca %class.GCLogPreciousHandle, align 8
  %5 = load i64, ptr @XAddressOffsetMax, align 8
  %6 = tail call noundef i64 @_ZN18XAddressSpaceLimit9heap_viewEv() #8
  %7 = tail call noundef i64 @llvm.umin.i64(i64 %5, i64 %6)
  %8 = shl i64 %1, 4
  %9 = tail call noundef i64 @llvm.umin.i64(i64 %8, i64 %7)
  %10 = load i64, ptr @XAddressOffsetMax, align 8
  %11 = sub i64 %10, %9
  %12 = lshr i64 %11, 13
  %13 = add nuw nsw i64 %12, 2097151
  %14 = and i64 %13, 4503599625273344
  %15 = tail call noundef i64 @llvm.umax.i64(i64 %14, i64 2097152)
  %.not10.not.i = icmp ult i64 %10, %9
  br i1 %.not10.not.i, label %.loopexit, label %.lr.ph.i

16:                                               ; preds = %.lr.ph.i
  %17 = add i64 %.011.i, %15
  %18 = add i64 %17, %9
  %19 = load i64, ptr @XAddressOffsetMax, align 8
  %.not.not.i = icmp ugt i64 %18, %19
  br i1 %.not.not.i, label %.loopexit, label %.lr.ph.i, !llvm.loop !6

.lr.ph.i:                                         ; preds = %2, %16
  %.011.i = phi i64 [ %17, %16 ], [ 0, %2 ]
  %20 = tail call noundef zeroext i1 @_ZN21XVirtualMemoryManager18reserve_contiguousEmm(ptr noundef nonnull align 8 dereferenceable(121) %0, i64 noundef %.011.i, i64 noundef %9)
  br i1 %20, label %_ZN21XVirtualMemoryManager18reserve_contiguousEm.exit.loopexit21, label %16

.loopexit:                                        ; preds = %16, %2
  %21 = phi i64 [ %10, %2 ], [ %19, %16 ]
  %22 = udiv i64 %9, 100
  %23 = add nuw nsw i64 %22, 2097151
  %24 = and i64 %23, 576460752301326336
  %25 = icmp ne i64 %9, 0
  %26 = icmp ne i64 %21, 0
  %27 = and i1 %25, %26
  br i1 %27, label %.lr.ph.i17, label %_ZN21XVirtualMemoryManager18reserve_contiguousEm.exit

.lr.ph.i17:                                       ; preds = %.loopexit, %.lr.ph.i17
  %28 = phi i64 [ %36, %.lr.ph.i17 ], [ %21, %.loopexit ]
  %.018.i = phi i64 [ %34, %.lr.ph.i17 ], [ 0, %.loopexit ]
  %.01417.i = phi i64 [ %33, %.lr.ph.i17 ], [ 0, %.loopexit ]
  %29 = sub i64 %9, %.01417.i
  %30 = sub i64 %28, %.018.i
  %31 = tail call noundef i64 @llvm.umin.i64(i64 %29, i64 %30)
  %32 = tail call noundef i64 @_ZN21XVirtualMemoryManager21reserve_discontiguousEmmm(ptr noundef nonnull align 8 dereferenceable(121) %0, i64 noundef %.018.i, i64 noundef %31, i64 noundef %24)
  %33 = add i64 %32, %.01417.i
  %34 = add i64 %31, %.018.i
  %35 = icmp ult i64 %33, %9
  %36 = load i64, ptr @XAddressOffsetMax, align 8
  %37 = icmp ult i64 %34, %36
  %38 = select i1 %35, i1 %37, i1 false
  br i1 %38, label %.lr.ph.i17, label %_ZN21XVirtualMemoryManager18reserve_contiguousEm.exit, !llvm.loop !8

_ZN21XVirtualMemoryManager18reserve_contiguousEm.exit.loopexit21: ; preds = %.lr.ph.i
  %.pre = load i64, ptr @XAddressOffsetMax, align 8
  br label %_ZN21XVirtualMemoryManager18reserve_contiguousEm.exit

_ZN21XVirtualMemoryManager18reserve_contiguousEm.exit: ; preds = %.lr.ph.i17, %_ZN21XVirtualMemoryManager18reserve_contiguousEm.exit.loopexit21, %.loopexit
  %39 = phi i64 [ %21, %.loopexit ], [ %.pre, %_ZN21XVirtualMemoryManager18reserve_contiguousEm.exit.loopexit21 ], [ %36, %.lr.ph.i17 ]
  %40 = phi ptr [ @.str.7, %.loopexit ], [ @.str.6, %_ZN21XVirtualMemoryManager18reserve_contiguousEm.exit.loopexit21 ], [ @.str.7, %.lr.ph.i17 ]
  %.0 = phi i64 [ 0, %.loopexit ], [ %9, %_ZN21XVirtualMemoryManager18reserve_contiguousEm.exit.loopexit21 ], [ %33, %.lr.ph.i17 ]
  store i32 3, ptr %3, align 8
  %.sroa.21.0..sroa_idx.i = getelementptr inbounds i8, ptr %3, i64 8
  store ptr @_ZN16LogTagSetMappingILN6LogTag4typeE49ELS1_58ELS1_0ELS1_0ELS1_0ELS1_0EE7_tagsetE, ptr %.sroa.21.0..sroa_idx.i, align 8
  %41 = icmp eq i64 %7, %39
  %42 = select i1 %41, ptr @.str.8, ptr @.str.9
  %43 = icmp eq i64 %.0, %9
  %.str.10..str.11 = select i1 %43, ptr @.str.10, ptr @.str.11
  call void (ptr, ptr, ...) @_ZN19GCLogPreciousHandle5writeEPKcz(ptr noundef nonnull align 8 dereferenceable(16) %3, ptr noundef nonnull @.str.5, ptr noundef nonnull %40, ptr noundef nonnull %42, ptr noundef nonnull %.str.10..str.11)
  store i32 3, ptr %4, align 8
  %.sroa.21.0..sroa_idx.i18 = getelementptr inbounds i8, ptr %4, i64 8
  store ptr @_ZN16LogTagSetMappingILN6LogTag4typeE49ELS1_58ELS1_0ELS1_0ELS1_0ELS1_0EE7_tagsetE, ptr %.sroa.21.0..sroa_idx.i18, align 8
  %44 = lshr i64 %.0, 20
  %45 = mul i64 %.0, 3
  %46 = lshr i64 %45, 20
  call void (ptr, ptr, ...) @_ZN19GCLogPreciousHandle5writeEPKcz(ptr noundef nonnull align 8 dereferenceable(16) %4, ptr noundef nonnull @.str.12, i64 noundef %44, i64 noundef 3, i64 noundef %46)
  %47 = getelementptr inbounds i8, ptr %0, i64 112
  store i64 %.0, ptr %47, align 8
  %48 = icmp uge i64 %.0, %1
  ret i1 %48
}